; Function Attrs: mustprogress uwtable
define void @_ZN7rocksdb19PinnableWideColumns25CreateIndexForWideColumnsEv(ptr dead_on_unwind noalias writable sret(%"class.rocksdb::Status") align 8 %0, ptr noundef nonnull align 8 dereferenceable(120) %1) local_unnamed_addr #3 align 2 personality ptr @__gxx_personality_v0 {
  %3 = alloca %"class.rocksdb::Slice", align 8
  %4 = getelementptr inbounds nuw i8, ptr %1, i64 96
  %5 = load ptr, ptr %4, align 8, !tbaa !4
  %6 = getelementptr inbounds nuw i8, ptr %1, i64 104
  %7 = load ptr, ptr %6, align 8, !tbaa !11
  %.not.i.i = icmp eq ptr %7, %5
  br i1 %.not.i.i, label %_ZNSt6vectorIN7rocksdb10WideColumnESaIS1_EE5clearEv.exit, label %8

8:                                                ; preds = %2
  store ptr %5, ptr %6, align 8, !tbaa !11
  br label %_ZNSt6vectorIN7rocksdb10WideColumnESaIS1_EE5clearEv.exit

_ZNSt6vectorIN7rocksdb10WideColumnESaIS1_EE5clearEv.exit: ; preds = %2, %8
  call void @llvm.lifetime.start.p0(i64 16, ptr nonnull %3) #10
  call void @llvm.memcpy.p0.p0.i64(ptr noundef nonnull align 8 dereferenceable(16) %3, ptr noundef nonnull align 8 dereferenceable(16) %1, i64 16, i1 false), !tbaa.struct !12
  call void @_ZN7rocksdb23WideColumnSerialization11DeserializeERNS_5SliceERSt6vectorINS_10WideColumnESaIS4_EE(ptr dead_on_unwind writable sret(%"class.rocksdb::Status") align 8 %0, ptr noundef nonnull align 8 dereferenceable(16) %3, ptr noundef nonnull align 8 dereferenceable(24) %4)
  call void @llvm.lifetime.end.p0(i64 16, ptr nonnull %3) #10
  ret void
}